target datalayout = "e-m:e-p270:32:32-p271:32:32-p272:64:64-i64:64-i128:128-f80:128-n8:16:32:64-S128"
target triple = "x86_64-pc-linux-gnu"

%struct.pmix_lock_t = type { i32, %struct.pmix_mutex_t, %union.pthread_cond_t, i8 }
%struct.pmix_mutex_t = type { %struct.pmix_object_t, %union.pthread_mutex_t }
%struct.pmix_object_t = type { %union.pthread_mutex_t, ptr, i32, %struct.pmix_tma }
%struct.pmix_tma = type { ptr, ptr, ptr, ptr, ptr, ptr, ptr, ptr }
%union.pthread_mutex_t = type { %struct.__pthread_mutex_s }
%struct.__pthread_mutex_s = type { i32, i32, i32, i32, i32, i16, i16, %struct.__pthread_internal_list }
%struct.__pthread_internal_list = type { ptr, ptr }
%union.pthread_cond_t = type { %struct.__pthread_cond_s }
%struct.__pthread_cond_s = type { %union.__atomic_wide_counter, %union.__atomic_wide_counter, [2 x i32], [2 x i32], i32, i32, [2 x i32] }
%union.__atomic_wide_counter = type { i64 }
%struct.pmix_group_tracker_t = type { %struct.pmix_object_t, %struct.pmix_lock_t, i32, i64, i64, ptr, ptr, i64, ptr, i64, ptr, i64, ptr, ptr, ptr }

; Function Attrs: inlinehint nounwind uwtable
define internal void @pmix_mutex_unlock(ptr noundef %0) #2 {
  %2 = alloca ptr, align 8
  store ptr %0, ptr %2, align 8, !tbaa !96
  %3 = load ptr, ptr %2, align 8, !tbaa !96
  %4 = getelementptr inbounds nuw %struct.pmix_mutex_t, ptr %3, i32 0, i32 1
  %5 = call i32 @pthread_mutex_unlock(ptr noundef %4) #11
  ret void
}

; Function Attrs: inlinehint nounwind uwtable
define internal void @pmix_atomic_wmb() #2 {
  fence release
  ret void
}

; Function Attrs: inlinehint nounwind uwtable
define internal void @pmix_mutex_lock(ptr noundef %0) #2 {
  %2 = alloca ptr, align 8
  store ptr %0, ptr %2, align 8, !tbaa !96
  %3 = load ptr, ptr %2, align 8, !tbaa !96
  %4 = getelementptr inbounds nuw %struct.pmix_mutex_t, ptr %3, i32 0, i32 1
  %5 = call i32 @pthread_mutex_lock(ptr noundef %4) #11
  ret void
}

; Function Attrs: nounwind uwtable
define internal void @regcbfunc(i32 noundef %0, i64 noundef %1, ptr noundef %2) #0 {
  %4 = alloca i32, align 4
  %5 = alloca i64, align 8
  %6 = alloca ptr, align 8
  %7 = alloca ptr, align 8
  store i32 %0, ptr %4, align 4, !tbaa !7
  store i64 %1, ptr %5, align 8, !tbaa !40
  store ptr %2, ptr %6, align 8, !tbaa !3
  call void @llvm.lifetime.start.p0(i64 8, ptr %7) #11
  %8 = load ptr, ptr %6, align 8, !tbaa !3
  store ptr %8, ptr %7, align 8, !tbaa !3
  %9 = load i32, ptr %4, align 4, !tbaa !7
  %10 = load ptr, ptr %7, align 8, !tbaa !3
  %11 = getelementptr inbounds nuw %struct.pmix_group_tracker_t, ptr %10, i32 0, i32 2
  store i32 %9, ptr %11, align 8, !tbaa !25
  %12 = load i64, ptr %5, align 8, !tbaa !40
  %13 = load ptr, ptr %7, align 8, !tbaa !3
  %14 = getelementptr inbounds nuw %struct.pmix_group_tracker_t, ptr %13, i32 0, i32 3
  store i64 %12, ptr %14, align 8, !tbaa !26
  br label %15

15:                                               ; preds = %3
  %16 = load ptr, ptr %7, align 8, !tbaa !3
  %17 = getelementptr inbounds nuw %struct.pmix_group_tracker_t, ptr %16, i32 0, i32 1
  %18 = getelementptr inbounds nuw %struct.pmix_lock_t, ptr %17, i32 0, i32 1
  call void @pmix_mutex_lock(ptr noundef %18)
  %19 = load ptr, ptr %7, align 8, !tbaa !3
  %20 = getelementptr inbounds nuw %struct.pmix_group_tracker_t, ptr %19, i32 0, i32 1
  %21 = getelementptr inbounds nuw %struct.pmix_lock_t, ptr %20, i32 0, i32 3
  store volatile i8 0, ptr %21, align 8, !tbaa !18
  call void @pmix_atomic_wmb()
  %22 = load ptr, ptr %7, align 8, !tbaa !3
  %23 = getelementptr inbounds nuw %struct.pmix_group_tracker_t, ptr %22, i32 0, i32 1
  %24 = getelementptr inbounds nuw %struct.pmix_lock_t, ptr %23, i32 0, i32 2
  %25 = call i32 @pthread_cond_broadcast(ptr noundef %24) #11
  %26 = load ptr, ptr %7, align 8, !tbaa !3
  %27 = getelementptr inbounds nuw %struct.pmix_group_tracker_t, ptr %26, i32 0, i32 1
  %28 = getelementptr inbounds nuw %struct.pmix_lock_t, ptr %27, i32 0, i32 1
  call void @pmix_mutex_unlock(ptr noundef %28)
  br label %29

29:                                               ; preds = %15
  br label %30

30:                                               ; preds = %29
  call void @llvm.lifetime.end.p0(i64 8, ptr %7) #11
  ret void
}