; Function Attrs: nounwind uwtable
define internal void @regcbfunc(i32 noundef %0, i64 noundef %1, ptr noundef initializes((344, 348), (352, 360)) %2) #0 {
  %4 = getelementptr inbounds nuw i8, ptr %2, i64 344
  store i32 %0, ptr %4, align 8, !tbaa !28
  %5 = getelementptr inbounds nuw i8, ptr %2, i64 352
  store i64 %1, ptr %5, align 8, !tbaa !188
  %6 = getelementptr inbounds nuw i8, ptr %2, i64 248
  %7 = tail call i32 @pthread_mutex_lock(ptr noundef nonnull %6) #16
  %8 = getelementptr inbounds nuw i8, ptr %2, i64 336
  store volatile i8 0, ptr %8, align 8, !tbaa !21
  fence release
  %9 = getelementptr inbounds nuw i8, ptr %2, i64 288
  %10 = tail call i32 @pthread_cond_broadcast(ptr noundef nonnull %9) #16
  %11 = tail call i32 @pthread_mutex_unlock(ptr noundef nonnull %6) #16
  ret void
}